
decode.o:     file format elf32-i386


Disassembly of section .text:

00000000 <main>:
   0:	8d 4c 24 04          	lea    ecx,[esp+0x4]
   4:	83 e4 f0             	and    esp,0xfffffff0
   7:	ff 71 fc             	push   DWORD PTR [ecx-0x4]
   a:	55                   	push   ebp
   b:	89 e5                	mov    ebp,esp
   d:	53                   	push   ebx
   e:	51                   	push   ecx
   f:	83 ec 20             	sub    esp,0x20
  12:	89 cb                	mov    ebx,ecx
  14:	c7 45 e4 00 00 00 00 	mov    DWORD PTR [ebp-0x1c],0x0
  1b:	c7 45 e8 00 00 00 00 	mov    DWORD PTR [ebp-0x18],0x0
  22:	c7 45 ec 00 00 00 00 	mov    DWORD PTR [ebp-0x14],0x0
  29:	c7 45 f0 00 00 00 00 	mov    DWORD PTR [ebp-0x10],0x0
  30:	e8 fc ff ff ff       	call   31 <main+0x31>
  35:	e9 89 00 00 00       	jmp    c3 <main+0xc3>
  3a:	8b 45 f4             	mov    eax,DWORD PTR [ebp-0xc]
  3d:	83 e8 64             	sub    eax,0x64
  40:	83 f8 12             	cmp    eax,0x12
  43:	77 5e                	ja     a3 <main+0xa3>
  45:	8b 04 85 30 00 00 00 	mov    eax,DWORD PTR [eax*4+0x30]
  4c:	ff e0                	jmp    eax
  4e:	83 ec 08             	sub    esp,0x8
  51:	68 00 00 00 00       	push   0x0
  56:	68 00 00 00 00       	push   0x0
  5b:	e8 fc ff ff ff       	call   5c <main+0x5c>
  60:	83 c4 10             	add    esp,0x10
  63:	83 ec 0c             	sub    esp,0xc
  66:	6a 00                	push   0x0
  68:	e8 fc ff ff ff       	call   69 <main+0x69>
  6d:	83 ec 0c             	sub    esp,0xc
  70:	68 03 00 00 00       	push   0x3
  75:	e8 fc ff ff ff       	call   76 <main+0x76>
  7a:	83 c4 10             	add    esp,0x10
  7d:	83 ec 0c             	sub    esp,0xc
  80:	6a 00                	push   0x0
  82:	e8 fc ff ff ff       	call   83 <main+0x83>
  87:	a1 00 00 00 00       	mov    eax,ds:0x0
  8c:	89 45 e4             	mov    DWORD PTR [ebp-0x1c],eax
  8f:	eb 32                	jmp    c3 <main+0xc3>
  91:	c7 45 f0 00 00 00 00 	mov    DWORD PTR [ebp-0x10],0x0
  98:	eb 29                	jmp    c3 <main+0xc3>
  9a:	c7 45 f0 01 00 00 00 	mov    DWORD PTR [ebp-0x10],0x1
  a1:	eb 20                	jmp    c3 <main+0xc3>
  a3:	a1 00 00 00 00       	mov    eax,ds:0x0
  a8:	83 ec 08             	sub    esp,0x8
  ab:	50                   	push   eax
  ac:	68 00 00 00 00       	push   0x0
  b1:	e8 fc ff ff ff       	call   b2 <main+0xb2>
  b6:	83 c4 10             	add    esp,0x10
  b9:	83 ec 0c             	sub    esp,0xc
  bc:	6a 01                	push   0x1
  be:	e8 fc ff ff ff       	call   bf <main+0xbf>
  c3:	83 ec 04             	sub    esp,0x4
  c6:	68 10 00 00 00       	push   0x10
  cb:	ff 73 04             	push   DWORD PTR [ebx+0x4]
  ce:	ff 33                	push   DWORD PTR [ebx]
  d0:	e8 fc ff ff ff       	call   d1 <main+0xd1>
  d5:	83 c4 10             	add    esp,0x10
  d8:	89 45 f4             	mov    DWORD PTR [ebp-0xc],eax
  db:	83 7d f4 ff          	cmp    DWORD PTR [ebp-0xc],0xffffffff
  df:	0f 85 55 ff ff ff    	jne    3a <main+0x3a>
  e5:	a1 00 00 00 00       	mov    eax,ds:0x0
  ea:	89 45 e8             	mov    DWORD PTR [ebp-0x18],eax
  ed:	a1 00 00 00 00       	mov    eax,ds:0x0
  f2:	39 03                	cmp    DWORD PTR [ebx],eax
  f4:	7e 69                	jle    15f <main+0x15f>
  f6:	a1 00 00 00 00       	mov    eax,ds:0x0
  fb:	8d 14 85 00 00 00 00 	lea    edx,[eax*4+0x0]
 102:	8b 43 04             	mov    eax,DWORD PTR [ebx+0x4]
 105:	01 d0                	add    eax,edx
 107:	8b 00                	mov    eax,DWORD PTR [eax]
 109:	83 ec 08             	sub    esp,0x8
 10c:	68 17 00 00 00       	push   0x17
 111:	50                   	push   eax
 112:	e8 fc ff ff ff       	call   113 <main+0x113>
 117:	83 c4 10             	add    esp,0x10
 11a:	89 45 e8             	mov    DWORD PTR [ebp-0x18],eax
 11d:	83 7d e8 00          	cmp    DWORD PTR [ebp-0x18],0x0
 121:	75 3c                	jne    15f <main+0x15f>
 123:	e8 fc ff ff ff       	call   124 <main+0x124>
 128:	8b 00                	mov    eax,DWORD PTR [eax]
 12a:	83 ec 0c             	sub    esp,0xc
 12d:	50                   	push   eax
 12e:	e8 fc ff ff ff       	call   12f <main+0x12f>
 133:	83 c4 10             	add    esp,0x10
 136:	8b 15 00 00 00 00    	mov    edx,DWORD PTR ds:0x0
 13c:	83 ec 0c             	sub    esp,0xc
 13f:	50                   	push   eax
 140:	6a 54                	push   0x54
 142:	68 19 00 00 00       	push   0x19
 147:	68 20 00 00 00       	push   0x20
 14c:	52                   	push   edx
 14d:	e8 fc ff ff ff       	call   14e <main+0x14e>
 152:	83 c4 20             	add    esp,0x20
 155:	83 ec 0c             	sub    esp,0xc
 158:	6a 01                	push   0x1
 15a:	e8 fc ff ff ff       	call   15b <main+0x15b>
 15f:	a1 00 00 00 00       	mov    eax,ds:0x0
 164:	89 45 ec             	mov    DWORD PTR [ebp-0x14],eax
 167:	a1 00 00 00 00       	mov    eax,ds:0x0
 16c:	83 c0 01             	add    eax,0x1
 16f:	39 03                	cmp    DWORD PTR [ebx],eax
 171:	7e 6c                	jle    1df <main+0x1df>
 173:	a1 00 00 00 00       	mov    eax,ds:0x0
 178:	83 c0 01             	add    eax,0x1
 17b:	8d 14 85 00 00 00 00 	lea    edx,[eax*4+0x0]
 182:	8b 43 04             	mov    eax,DWORD PTR [ebx+0x4]
 185:	01 d0                	add    eax,edx
 187:	8b 00                	mov    eax,DWORD PTR [eax]
 189:	83 ec 08             	sub    esp,0x8
 18c:	68 2e 00 00 00       	push   0x2e
 191:	50                   	push   eax
 192:	e8 fc ff ff ff       	call   193 <main+0x193>
 197:	83 c4 10             	add    esp,0x10
 19a:	89 45 ec             	mov    DWORD PTR [ebp-0x14],eax
 19d:	83 7d ec 00          	cmp    DWORD PTR [ebp-0x14],0x0
 1a1:	75 3c                	jne    1df <main+0x1df>
 1a3:	e8 fc ff ff ff       	call   1a4 <main+0x1a4>
 1a8:	8b 00                	mov    eax,DWORD PTR [eax]
 1aa:	83 ec 0c             	sub    esp,0xc
 1ad:	50                   	push   eax
 1ae:	e8 fc ff ff ff       	call   1af <main+0x1af>
 1b3:	83 c4 10             	add    esp,0x10
 1b6:	8b 15 00 00 00 00    	mov    edx,DWORD PTR ds:0x0
 1bc:	83 ec 0c             	sub    esp,0xc
 1bf:	50                   	push   eax
 1c0:	6a 5d                	push   0x5d
 1c2:	68 19 00 00 00       	push   0x19
 1c7:	68 20 00 00 00       	push   0x20
 1cc:	52                   	push   edx
 1cd:	e8 fc ff ff ff       	call   1ce <main+0x1ce>
 1d2:	83 c4 20             	add    esp,0x20
 1d5:	83 ec 0c             	sub    esp,0xc
 1d8:	6a 01                	push   0x1
 1da:	e8 fc ff ff ff       	call   1db <main+0x1db>
 1df:	8b 45 f0             	mov    eax,DWORD PTR [ebp-0x10]
 1e2:	50                   	push   eax
 1e3:	ff 75 e4             	push   DWORD PTR [ebp-0x1c]
 1e6:	ff 75 ec             	push   DWORD PTR [ebp-0x14]
 1e9:	ff 75 e8             	push   DWORD PTR [ebp-0x18]
 1ec:	e8 fc ff ff ff       	call   1ed <main+0x1ed>
 1f1:	83 c4 10             	add    esp,0x10
 1f4:	a1 00 00 00 00       	mov    eax,ds:0x0
 1f9:	39 45 e8             	cmp    DWORD PTR [ebp-0x18],eax
 1fc:	74 0e                	je     20c <main+0x20c>
 1fe:	83 ec 0c             	sub    esp,0xc
 201:	ff 75 e8             	push   DWORD PTR [ebp-0x18]
 204:	e8 fc ff ff ff       	call   205 <main+0x205>
 209:	83 c4 10             	add    esp,0x10
 20c:	a1 00 00 00 00       	mov    eax,ds:0x0
 211:	39 45 ec             	cmp    DWORD PTR [ebp-0x14],eax
 214:	74 0e                	je     224 <main+0x224>
 216:	83 ec 0c             	sub    esp,0xc
 219:	ff 75 ec             	push   DWORD PTR [ebp-0x14]
 21c:	e8 fc ff ff ff       	call   21d <main+0x21d>
 221:	83 c4 10             	add    esp,0x10
 224:	b8 00 00 00 00       	mov    eax,0x0
 229:	8d 65 f8             	lea    esp,[ebp-0x8]
 22c:	59                   	pop    ecx
 22d:	5b                   	pop    ebx
 22e:	5d                   	pop    ebp
 22f:	8d 61 fc             	lea    esp,[ecx-0x4]
 232:	c3                   	ret    
